; ModuleID = '29/45.c'
source_filename = "29/45.c"
target datalayout = "e-m:e-p270:32:32-p271:32:32-p272:64:64-i64:64-f80:128-n8:16:32:64-S128"
target triple = "x86_64-pc-linux-gnu"

@.str = private unnamed_addr constant [3 x i8] c"%d\00", align 1
@.str.1 = private unnamed_addr constant [7 x i8] c"%.3lf\0A\00", align 1

; Function Attrs: noinline nounwind uwtable
define dso_local i32 @main() #0 {
  %1 = alloca i32, align 4
  %2 = alloca i32, align 4
  %3 = alloca i32, align 4
  %4 = alloca i32, align 4
  %5 = alloca [100 x i32], align 16
  %6 = alloca [100 x double], align 16
  %7 = alloca [1000 x i32], align 16
  %8 = alloca [1000 x i32], align 16
  store i32 0, i32* %1, align 4
  %9 = call i32 (i8*, ...) @__isoc99_scanf(i8* getelementptr inbounds ([3 x i8], [3 x i8]* @.str, i64 0, i64 0), i32* %2)
  store i32 0, i32* %3, align 4
  br label %10

10:                                               ; preds = %17, %0
  %11 = load i32, i32* %3, align 4
  %12 = icmp slt i32 %11, 100
  br i1 %12, label %13, label %20

13:                                               ; preds = %10
  %14 = load i32, i32* %3, align 4
  %15 = sext i32 %14 to i64
  %16 = getelementptr inbounds [100 x double], [100 x double]* %6, i64 0, i64 %15
  store double 0.000000e+00, double* %16, align 8
  br label %17

17:                                               ; preds = %13
  %18 = load i32, i32* %3, align 4
  %19 = add nsw i32 %18, 1
  store i32 %19, i32* %3, align 4
  br label %10

20:                                               ; preds = %10
  store i32 0, i32* %3, align 4
  br label %21

21:                                               ; preds = %30, %20
  %22 = load i32, i32* %3, align 4
  %23 = load i32, i32* %2, align 4
  %24 = icmp slt i32 %22, %23
  br i1 %24, label %25, label %33

25:                                               ; preds = %21
  %26 = load i32, i32* %3, align 4
  %27 = sext i32 %26 to i64
  %28 = getelementptr inbounds [100 x i32], [100 x i32]* %5, i64 0, i64 %27
  %29 = call i32 (i8*, ...) @__isoc99_scanf(i8* getelementptr inbounds ([3 x i8], [3 x i8]* @.str, i64 0, i64 0), i32* %28)
  br label %30

30:                                               ; preds = %25
  %31 = load i32, i32* %3, align 4
  %32 = add nsw i32 %31, 1
  store i32 %32, i32* %3, align 4
  br label %21

33:                                               ; preds = %21
  store i32 1, i32* %3, align 4
  br label %34

34:                                               ; preds = %62, %33
  %35 = load i32, i32* %3, align 4
  %36 = icmp slt i32 %35, 1000
  br i1 %36, label %37, label %65

37:                                               ; preds = %34
  %38 = getelementptr inbounds [1000 x i32], [1000 x i32]* %7, i64 0, i64 0
  store i32 2, i32* %38, align 16
  %39 = getelementptr inbounds [1000 x i32], [1000 x i32]* %8, i64 0, i64 0
  store i32 1, i32* %39, align 16
  %40 = load i32, i32* %3, align 4
  %41 = sub nsw i32 %40, 1
  %42 = sext i32 %41 to i64
  %43 = getelementptr inbounds [1000 x i32], [1000 x i32]* %7, i64 0, i64 %42
  %44 = load i32, i32* %43, align 4
  %45 = load i32, i32* %3, align 4
  %46 = sub nsw i32 %45, 1
  %47 = sext i32 %46 to i64
  %48 = getelementptr inbounds [1000 x i32], [1000 x i32]* %8, i64 0, i64 %47
  %49 = load i32, i32* %48, align 4
  %50 = add nsw i32 %44, %49
  %51 = load i32, i32* %3, align 4
  %52 = sext i32 %51 to i64
  %53 = getelementptr inbounds [1000 x i32], [1000 x i32]* %7, i64 0, i64 %52
  store i32 %50, i32* %53, align 4
  %54 = load i32, i32* %3, align 4
  %55 = sub nsw i32 %54, 1
  %56 = sext i32 %55 to i64
  %57 = getelementptr inbounds [1000 x i32], [1000 x i32]* %7, i64 0, i64 %56
  %58 = load i32, i32* %57, align 4
  %59 = load i32, i32* %3, align 4
  %60 = sext i32 %59 to i64
  %61 = getelementptr inbounds [1000 x i32], [1000 x i32]* %8, i64 0, i64 %60
  store i32 %58, i32* %61, align 4
  br label %62

62:                                               ; preds = %37
  %63 = load i32, i32* %3, align 4
  %64 = add nsw i32 %63, 1
  store i32 %64, i32* %3, align 4
  br label %34

65:                                               ; preds = %34
  store i32 0, i32* %3, align 4
  br label %66

66:                                               ; preds = %105, %65
  %67 = load i32, i32* %3, align 4
  %68 = load i32, i32* %2, align 4
  %69 = icmp slt i32 %67, %68
  br i1 %69, label %70, label %108

70:                                               ; preds = %66
  store i32 0, i32* %4, align 4
  br label %71

71:                                               ; preds = %96, %70
  %72 = load i32, i32* %4, align 4
  %73 = load i32, i32* %3, align 4
  %74 = sext i32 %73 to i64
  %75 = getelementptr inbounds [100 x i32], [100 x i32]* %5, i64 0, i64 %74
  %76 = load i32, i32* %75, align 4
  %77 = icmp slt i32 %72, %76
  br i1 %77, label %78, label %99

78:                                               ; preds = %71
  %79 = load i32, i32* %4, align 4
  %80 = sext i32 %79 to i64
  %81 = getelementptr inbounds [1000 x i32], [1000 x i32]* %7, i64 0, i64 %80
  %82 = load i32, i32* %81, align 4
  %83 = sitofp i32 %82 to double
  %84 = fmul double 1.000000e+00, %83
  %85 = load i32, i32* %4, align 4
  %86 = sext i32 %85 to i64
  %87 = getelementptr inbounds [1000 x i32], [1000 x i32]* %8, i64 0, i64 %86
  %88 = load i32, i32* %87, align 4
  %89 = sitofp i32 %88 to double
  %90 = fdiv double %84, %89
  %91 = load i32, i32* %3, align 4
  %92 = sext i32 %91 to i64
  %93 = getelementptr inbounds [100 x double], [100 x double]* %6, i64 0, i64 %92
  %94 = load double, double* %93, align 8
  %95 = fadd double %94, %90
  store double %95, double* %93, align 8
  br label %96

96:                                               ; preds = %78
  %97 = load i32, i32* %4, align 4
  %98 = add nsw i32 %97, 1
  store i32 %98, i32* %4, align 4
  br label %71

99:                                               ; preds = %71
  %100 = load i32, i32* %3, align 4
  %101 = sext i32 %100 to i64
  %102 = getelementptr inbounds [100 x double], [100 x double]* %6, i64 0, i64 %101
  %103 = load double, double* %102, align 8
  %104 = call i32 (i8*, ...) @printf(i8* getelementptr inbounds ([7 x i8], [7 x i8]* @.str.1, i64 0, i64 0), double %103)
  br label %105

105:                                              ; preds = %99
  %106 = load i32, i32* %3, align 4
  %107 = add nsw i32 %106, 1
  store i32 %107, i32* %3, align 4
  br label %66

108:                                              ; preds = %66
  ret i32 0
}

declare dso_local i32 @__isoc99_scanf(i8*, ...) #1

declare dso_local i32 @printf(i8*, ...) #1


!llvm.module.flags = !{!0}
!llvm.ident = !{!1}

!0 = !{i32 1, !"wchar_size", i32 4}
!1 = !{!"clang version 10.0.0-4ubuntu1 "}
